; Function Attrs: nounwind uwtable
define ptr @l_Lean_Meta_isLitValue___lambda__7(ptr noundef %0, ptr readnone captures(none) %1, ptr noundef %2, ptr noundef %3, ptr noundef %4, ptr noundef %5, ptr noundef %6) local_unnamed_addr #1 {
  %8 = ptrtoint ptr %0 to i64
  %9 = and i64 %8, 1
  %.not = icmp eq i64 %9, 0
  br i1 %.not, label %10, label %lean_inc.exit

10:                                               ; preds = %7
  %.val.i = load i32, ptr %0, align 4, !tbaa !9
  %11 = icmp sgt i32 %.val.i, 0
  br i1 %11, label %12, label %14, !prof !12

12:                                               ; preds = %10
  %13 = add nuw i32 %.val.i, 1
  store i32 %13, ptr %0, align 4, !tbaa !9
  br label %lean_inc.exit

14:                                               ; preds = %10
  %.not.i38 = icmp eq i32 %.val.i, 0
  br i1 %.not.i38, label %lean_inc.exit, label %15

15:                                               ; preds = %14
  tail call void @lean_inc_ref_cold(ptr noundef nonnull %0) #4
  br label %lean_inc.exit

lean_inc.exit:                                    ; preds = %15, %14, %12, %7
  %16 = tail call ptr @l_Lean_Meta_getStringValue_x3f(ptr noundef %0)
  %17 = ptrtoint ptr %16 to i64
  %18 = and i64 %17, 1
  %.not.i39 = icmp eq i64 %18, 0
  br i1 %.not.i39, label %lean_obj_tag.exit.thread, label %lean_obj_tag.exit

lean_obj_tag.exit:                                ; preds = %lean_inc.exit
  %19 = and i64 %17, 8589934590
  %20 = icmp eq i64 %19, 0
  br i1 %20, label %23, label %lean_dec.exit27

lean_obj_tag.exit.thread:                         ; preds = %lean_inc.exit
  %21 = getelementptr i8, ptr %16, i64 4
  %.val.i40 = load i32, ptr %21, align 4
  %22 = icmp ult i32 %.val.i40, 16777216
  br i1 %22, label %23, label %.thread

23:                                               ; preds = %lean_obj_tag.exit.thread, %lean_obj_tag.exit
  %24 = tail call ptr @l_Lean_Meta_isLitValue___lambda__6(ptr noundef %0, ptr nonnull poison, ptr noundef %2, ptr noundef %3, ptr noundef %4, ptr noundef %5, ptr noundef %6)
  br label %80

.thread:                                          ; preds = %lean_obj_tag.exit.thread
  %25 = load i32, ptr %16, align 4, !tbaa !9
  %26 = icmp sgt i32 %25, 1
  br i1 %26, label %27, label %29, !prof !12

27:                                               ; preds = %.thread
  %28 = add nsw i32 %25, -1
  store i32 %28, ptr %16, align 4, !tbaa !9
  br label %lean_dec.exit27

29:                                               ; preds = %.thread
  %.not.i = icmp eq i32 %25, 0
  br i1 %.not.i, label %lean_dec.exit27, label %30

30:                                               ; preds = %29
  tail call void @lean_dec_ref_cold(ptr noundef nonnull %16) #4
  br label %lean_dec.exit27

lean_dec.exit27:                                  ; preds = %lean_obj_tag.exit, %30, %29, %27
  %31 = ptrtoint ptr %5 to i64
  %32 = and i64 %31, 1
  %.not42 = icmp eq i64 %32, 0
  br i1 %.not42, label %33, label %lean_dec.exit26

33:                                               ; preds = %lean_dec.exit27
  %34 = load i32, ptr %5, align 4, !tbaa !9
  %35 = icmp sgt i32 %34, 1
  br i1 %35, label %36, label %38, !prof !12

36:                                               ; preds = %33
  %37 = add nsw i32 %34, -1
  store i32 %37, ptr %5, align 4, !tbaa !9
  br label %lean_dec.exit26

38:                                               ; preds = %33
  %.not.i28 = icmp eq i32 %34, 0
  br i1 %.not.i28, label %lean_dec.exit26, label %39

39:                                               ; preds = %38
  tail call void @lean_dec_ref_cold(ptr noundef nonnull %5) #4
  br label %lean_dec.exit26

lean_dec.exit26:                                  ; preds = %39, %38, %36, %lean_dec.exit27
  %40 = ptrtoint ptr %4 to i64
  %41 = and i64 %40, 1
  %.not43 = icmp eq i64 %41, 0
  br i1 %.not43, label %42, label %lean_dec.exit25

42:                                               ; preds = %lean_dec.exit26
  %43 = load i32, ptr %4, align 4, !tbaa !9
  %44 = icmp sgt i32 %43, 1
  br i1 %44, label %45, label %47, !prof !12

45:                                               ; preds = %42
  %46 = add nsw i32 %43, -1
  store i32 %46, ptr %4, align 4, !tbaa !9
  br label %lean_dec.exit25

47:                                               ; preds = %42
  %.not.i30 = icmp eq i32 %43, 0
  br i1 %.not.i30, label %lean_dec.exit25, label %48

48:                                               ; preds = %47
  tail call void @lean_dec_ref_cold(ptr noundef nonnull %4) #4
  br label %lean_dec.exit25

lean_dec.exit25:                                  ; preds = %48, %47, %45, %lean_dec.exit26
  %49 = ptrtoint ptr %3 to i64
  %50 = and i64 %49, 1
  %.not44 = icmp eq i64 %50, 0
  br i1 %.not44, label %51, label %lean_dec.exit24

51:                                               ; preds = %lean_dec.exit25
  %52 = load i32, ptr %3, align 4, !tbaa !9
  %53 = icmp sgt i32 %52, 1
  br i1 %53, label %54, label %56, !prof !12

54:                                               ; preds = %51
  %55 = add nsw i32 %52, -1
  store i32 %55, ptr %3, align 4, !tbaa !9
  br label %lean_dec.exit24

56:                                               ; preds = %51
  %.not.i32 = icmp eq i32 %52, 0
  br i1 %.not.i32, label %lean_dec.exit24, label %57

57:                                               ; preds = %56
  tail call void @lean_dec_ref_cold(ptr noundef nonnull %3) #4
  br label %lean_dec.exit24

lean_dec.exit24:                                  ; preds = %57, %56, %54, %lean_dec.exit25
  %58 = ptrtoint ptr %2 to i64
  %59 = and i64 %58, 1
  %.not45 = icmp eq i64 %59, 0
  br i1 %.not45, label %60, label %lean_dec.exit23

60:                                               ; preds = %lean_dec.exit24
  %61 = load i32, ptr %2, align 4, !tbaa !9
  %62 = icmp sgt i32 %61, 1
  br i1 %62, label %63, label %65, !prof !12

63:                                               ; preds = %60
  %64 = add nsw i32 %61, -1
  store i32 %64, ptr %2, align 4, !tbaa !9
  br label %lean_dec.exit23

65:                                               ; preds = %60
  %.not.i34 = icmp eq i32 %61, 0
  br i1 %.not.i34, label %lean_dec.exit23, label %66

66:                                               ; preds = %65
  tail call void @lean_dec_ref_cold(ptr noundef nonnull %2) #4
  br label %lean_dec.exit23

lean_dec.exit23:                                  ; preds = %66, %65, %63, %lean_dec.exit24
  br i1 %.not, label %67, label %lean_dec.exit

67:                                               ; preds = %lean_dec.exit23
  %68 = load i32, ptr %0, align 4, !tbaa !9
  %69 = icmp sgt i32 %68, 1
  br i1 %69, label %70, label %72, !prof !12

70:                                               ; preds = %67
  %71 = add nsw i32 %68, -1
  store i32 %71, ptr %0, align 4, !tbaa !9
  br label %lean_dec.exit

72:                                               ; preds = %67
  %.not.i36 = icmp eq i32 %68, 0
  br i1 %.not.i36, label %lean_dec.exit, label %73

73:                                               ; preds = %72
  tail call void @lean_dec_ref_cold(ptr noundef nonnull %0) #4
  br label %lean_dec.exit

lean_dec.exit:                                    ; preds = %73, %72, %70, %lean_dec.exit23
  tail call void @lean_inc_heartbeat() #4
  %74 = tail call noalias ptr @mi_malloc_small(i64 noundef 24) #4
  %75 = icmp eq ptr %74, null
  br i1 %75, label %76, label %lean_alloc_ctor.exit

76:                                               ; preds = %lean_dec.exit
  tail call void @lean_internal_panic_out_of_memory() #5
  unreachable

lean_alloc_ctor.exit:                             ; preds = %lean_dec.exit
  %77 = getelementptr inbounds nuw i8, ptr %74, i64 4
  store i32 1, ptr %74, align 4, !tbaa !9
  store i32 131096, ptr %77, align 4
  %78 = getelementptr inbounds nuw i8, ptr %74, i64 8
  store ptr inttoptr (i64 3 to ptr), ptr %78, align 8, !tbaa !5
  %79 = getelementptr inbounds nuw i8, ptr %74, i64 16
  store ptr %6, ptr %79, align 8, !tbaa !5
  br label %80

80:                                               ; preds = %lean_alloc_ctor.exit, %23
  %.0 = phi ptr [ %24, %23 ], [ %74, %lean_alloc_ctor.exit ]
  ret ptr %.0
}